target datalayout = "e-m:e-p270:32:32-p271:32:32-p272:64:64-i64:64-i128:128-f80:128-n8:16:32:64-S128"
target triple = "x86_64-pc-linux-gnu"

%struct.Aig_Obj_t_ = type { %union.anon, ptr, ptr, i64, i32, i32, %union.anon.0 }
%union.anon = type { ptr }
%union.anon.0 = type { ptr }
%struct.Vec_Ptr_t_ = type { i32, i32, ptr }

; Function Attrs: inlinehint nounwind uwtable
define internal void @Vec_PtrGrow(ptr noundef %0, i32 noundef %1) #4 {
  %3 = alloca ptr, align 8
  %4 = alloca i32, align 4
  store ptr %0, ptr %3, align 8, !tbaa !32
  store i32 %1, ptr %4, align 4, !tbaa !22
  %5 = load ptr, ptr %3, align 8, !tbaa !32
  %6 = getelementptr inbounds nuw %struct.Vec_Ptr_t_, ptr %5, i32 0, i32 0
  %7 = load i32, ptr %6, align 8, !tbaa !107
  %8 = load i32, ptr %4, align 4, !tbaa !22
  %9 = icmp sge i32 %7, %8
  br i1 %9, label %10, label %11

10:                                               ; preds = %2
  br label %36

11:                                               ; preds = %2
  %12 = load ptr, ptr %3, align 8, !tbaa !32
  %13 = getelementptr inbounds nuw %struct.Vec_Ptr_t_, ptr %12, i32 0, i32 2
  %14 = load ptr, ptr %13, align 8, !tbaa !35
  %15 = icmp ne ptr %14, null
  br i1 %15, label %16, label %24

16:                                               ; preds = %11
  %17 = load ptr, ptr %3, align 8, !tbaa !32
  %18 = getelementptr inbounds nuw %struct.Vec_Ptr_t_, ptr %17, i32 0, i32 2
  %19 = load ptr, ptr %18, align 8, !tbaa !35
  %20 = load i32, ptr %4, align 4, !tbaa !22
  %21 = sext i32 %20 to i64
  %22 = mul i64 8, %21
  %23 = call ptr @realloc(ptr noundef %19, i64 noundef %22) #12
  br label %29

24:                                               ; preds = %11
  %25 = load i32, ptr %4, align 4, !tbaa !22
  %26 = sext i32 %25 to i64
  %27 = mul i64 8, %26
  %28 = call noalias ptr @malloc(i64 noundef %27) #13
  br label %29

29:                                               ; preds = %24, %16
  %30 = phi ptr [ %23, %16 ], [ %28, %24 ]
  %31 = load ptr, ptr %3, align 8, !tbaa !32
  %32 = getelementptr inbounds nuw %struct.Vec_Ptr_t_, ptr %31, i32 0, i32 2
  store ptr %30, ptr %32, align 8, !tbaa !35
  %33 = load i32, ptr %4, align 4, !tbaa !22
  %34 = load ptr, ptr %3, align 8, !tbaa !32
  %35 = getelementptr inbounds nuw %struct.Vec_Ptr_t_, ptr %34, i32 0, i32 0
  store i32 %33, ptr %35, align 8, !tbaa !107
  br label %36

36:                                               ; preds = %29, %10
  ret void
}

; Function Attrs: inlinehint nounwind uwtable
define internal i32 @Abc_MaxInt(i32 noundef %0, i32 noundef %1) #4 {
  %3 = alloca i32, align 4
  %4 = alloca i32, align 4
  store i32 %0, ptr %3, align 4, !tbaa !22
  store i32 %1, ptr %4, align 4, !tbaa !22
  %5 = load i32, ptr %3, align 4, !tbaa !22
  %6 = load i32, ptr %4, align 4, !tbaa !22
  %7 = icmp sgt i32 %5, %6
  br i1 %7, label %8, label %10

8:                                                ; preds = %2
  %9 = load i32, ptr %3, align 4, !tbaa !22
  br label %12

10:                                               ; preds = %2
  %11 = load i32, ptr %4, align 4, !tbaa !22
  br label %12

12:                                               ; preds = %10, %8
  %13 = phi i32 [ %9, %8 ], [ %11, %10 ]
  ret i32 %13
}

; Function Attrs: inlinehint nounwind uwtable
define internal i32 @Vec_PtrSize(ptr noundef %0) #4 {
  %2 = alloca ptr, align 8
  store ptr %0, ptr %2, align 8, !tbaa !32
  %3 = load ptr, ptr %2, align 8, !tbaa !32
  %4 = getelementptr inbounds nuw %struct.Vec_Ptr_t_, ptr %3, i32 0, i32 1
  %5 = load i32, ptr %4, align 4, !tbaa !33
  ret i32 %5
}

; Function Attrs: nounwind uwtable
define void @Aig_NodeIntersectLists(ptr noundef %0, ptr noundef %1, ptr noundef %2) #0 {
  %4 = alloca ptr, align 8
  %5 = alloca ptr, align 8
  %6 = alloca ptr, align 8
  %7 = alloca ptr, align 8
  %8 = alloca ptr, align 8
  %9 = alloca ptr, align 8
  %10 = alloca ptr, align 8
  %11 = alloca ptr, align 8
  store ptr %0, ptr %4, align 8, !tbaa !32
  store ptr %1, ptr %5, align 8, !tbaa !32
  store ptr %2, ptr %6, align 8, !tbaa !32
  call void @llvm.lifetime.start.p0(i64 8, ptr %7) #10
  %12 = load ptr, ptr %6, align 8, !tbaa !32
  %13 = getelementptr inbounds nuw %struct.Vec_Ptr_t_, ptr %12, i32 0, i32 2
  %14 = load ptr, ptr %13, align 8, !tbaa !35
  store ptr %14, ptr %7, align 8, !tbaa !46
  call void @llvm.lifetime.start.p0(i64 8, ptr %8) #10
  %15 = load ptr, ptr %4, align 8, !tbaa !32
  %16 = getelementptr inbounds nuw %struct.Vec_Ptr_t_, ptr %15, i32 0, i32 2
  %17 = load ptr, ptr %16, align 8, !tbaa !35
  store ptr %17, ptr %8, align 8, !tbaa !46
  call void @llvm.lifetime.start.p0(i64 8, ptr %9) #10
  %18 = load ptr, ptr %5, align 8, !tbaa !32
  %19 = getelementptr inbounds nuw %struct.Vec_Ptr_t_, ptr %18, i32 0, i32 2
  %20 = load ptr, ptr %19, align 8, !tbaa !35
  store ptr %20, ptr %9, align 8, !tbaa !46
  call void @llvm.lifetime.start.p0(i64 8, ptr %10) #10
  %21 = load ptr, ptr %4, align 8, !tbaa !32
  %22 = getelementptr inbounds nuw %struct.Vec_Ptr_t_, ptr %21, i32 0, i32 2
  %23 = load ptr, ptr %22, align 8, !tbaa !35
  %24 = load ptr, ptr %4, align 8, !tbaa !32
  %25 = getelementptr inbounds nuw %struct.Vec_Ptr_t_, ptr %24, i32 0, i32 1
  %26 = load i32, ptr %25, align 4, !tbaa !33
  %27 = sext i32 %26 to i64
  %28 = getelementptr inbounds ptr, ptr %23, i64 %27
  store ptr %28, ptr %10, align 8, !tbaa !46
  call void @llvm.lifetime.start.p0(i64 8, ptr %11) #10
  %29 = load ptr, ptr %5, align 8, !tbaa !32
  %30 = getelementptr inbounds nuw %struct.Vec_Ptr_t_, ptr %29, i32 0, i32 2
  %31 = load ptr, ptr %30, align 8, !tbaa !35
  %32 = load ptr, ptr %5, align 8, !tbaa !32
  %33 = getelementptr inbounds nuw %struct.Vec_Ptr_t_, ptr %32, i32 0, i32 1
  %34 = load i32, ptr %33, align 4, !tbaa !33
  %35 = sext i32 %34 to i64
  %36 = getelementptr inbounds ptr, ptr %31, i64 %35
  store ptr %36, ptr %11, align 8, !tbaa !46
  %37 = load ptr, ptr %6, align 8, !tbaa !32
  %38 = load ptr, ptr %4, align 8, !tbaa !32
  %39 = call i32 @Vec_PtrSize(ptr noundef %38)
  %40 = load ptr, ptr %5, align 8, !tbaa !32
  %41 = call i32 @Vec_PtrSize(ptr noundef %40)
  %42 = call i32 @Abc_MaxInt(i32 noundef %39, i32 noundef %41)
  call void @Vec_PtrGrow(ptr noundef %37, i32 noundef %42)
  %43 = load ptr, ptr %6, align 8, !tbaa !32
  %44 = getelementptr inbounds nuw %struct.Vec_Ptr_t_, ptr %43, i32 0, i32 2
  %45 = load ptr, ptr %44, align 8, !tbaa !35
  store ptr %45, ptr %7, align 8, !tbaa !46
  br label %46

46:                                               ; preds = %91, %3
  %47 = load ptr, ptr %8, align 8, !tbaa !46
  %48 = load ptr, ptr %10, align 8, !tbaa !46
  %49 = icmp ult ptr %47, %48
  br i1 %49, label %50, label %54

50:                                               ; preds = %46
  %51 = load ptr, ptr %9, align 8, !tbaa !46
  %52 = load ptr, ptr %11, align 8, !tbaa !46
  %53 = icmp ult ptr %51, %52
  br label %54

54:                                               ; preds = %50, %46
  %55 = phi i1 [ false, %46 ], [ %53, %50 ]
  br i1 %55, label %56, label %92

56:                                               ; preds = %54
  %57 = load ptr, ptr %8, align 8, !tbaa !46
  %58 = load ptr, ptr %57, align 8, !tbaa !24
  %59 = getelementptr inbounds nuw %struct.Aig_Obj_t_, ptr %58, i32 0, i32 5
  %60 = load i32, ptr %59, align 4, !tbaa !47
  %61 = load ptr, ptr %9, align 8, !tbaa !46
  %62 = load ptr, ptr %61, align 8, !tbaa !24
  %63 = getelementptr inbounds nuw %struct.Aig_Obj_t_, ptr %62, i32 0, i32 5
  %64 = load i32, ptr %63, align 4, !tbaa !47
  %65 = icmp eq i32 %60, %64
  br i1 %65, label %66, label %74

66:                                               ; preds = %56
  %67 = load ptr, ptr %8, align 8, !tbaa !46
  %68 = getelementptr inbounds nuw ptr, ptr %67, i32 1
  store ptr %68, ptr %8, align 8, !tbaa !46
  %69 = load ptr, ptr %67, align 8, !tbaa !24
  %70 = load ptr, ptr %7, align 8, !tbaa !46
  %71 = getelementptr inbounds nuw ptr, ptr %70, i32 1
  store ptr %71, ptr %7, align 8, !tbaa !46
  store ptr %69, ptr %70, align 8, !tbaa !24
  %72 = load ptr, ptr %9, align 8, !tbaa !46
  %73 = getelementptr inbounds nuw ptr, ptr %72, i32 1
  store ptr %73, ptr %9, align 8, !tbaa !46
  br label %91

74:                                               ; preds = %56
  %75 = load ptr, ptr %8, align 8, !tbaa !46
  %76 = load ptr, ptr %75, align 8, !tbaa !24
  %77 = getelementptr inbounds nuw %struct.Aig_Obj_t_, ptr %76, i32 0, i32 5
  %78 = load i32, ptr %77, align 4, !tbaa !47
  %79 = load ptr, ptr %9, align 8, !tbaa !46
  %80 = load ptr, ptr %79, align 8, !tbaa !24
  %81 = getelementptr inbounds nuw %struct.Aig_Obj_t_, ptr %80, i32 0, i32 5
  %82 = load i32, ptr %81, align 4, !tbaa !47
  %83 = icmp slt i32 %78, %82
  br i1 %83, label %84, label %87

84:                                               ; preds = %74
  %85 = load ptr, ptr %8, align 8, !tbaa !46
  %86 = getelementptr inbounds nuw ptr, ptr %85, i32 1
  store ptr %86, ptr %8, align 8, !tbaa !46
  br label %90

87:                                               ; preds = %74
  %88 = load ptr, ptr %9, align 8, !tbaa !46
  %89 = getelementptr inbounds nuw ptr, ptr %88, i32 1
  store ptr %89, ptr %9, align 8, !tbaa !46
  br label %90

90:                                               ; preds = %87, %84
  br label %91

91:                                               ; preds = %90, %66
  br label %46, !llvm.loop !108

92:                                               ; preds = %54
  %93 = load ptr, ptr %7, align 8, !tbaa !46
  %94 = load ptr, ptr %6, align 8, !tbaa !32
  %95 = getelementptr inbounds nuw %struct.Vec_Ptr_t_, ptr %94, i32 0, i32 2
  %96 = load ptr, ptr %95, align 8, !tbaa !35
  %97 = ptrtoint ptr %93 to i64
  %98 = ptrtoint ptr %96 to i64
  %99 = sub i64 %97, %98
  %100 = sdiv exact i64 %99, 8
  %101 = trunc i64 %100 to i32
  %102 = load ptr, ptr %6, align 8, !tbaa !32
  %103 = getelementptr inbounds nuw %struct.Vec_Ptr_t_, ptr %102, i32 0, i32 1
  store i32 %101, ptr %103, align 4, !tbaa !33
  call void @llvm.lifetime.end.p0(i64 8, ptr %11) #10
  call void @llvm.lifetime.end.p0(i64 8, ptr %10) #10
  call void @llvm.lifetime.end.p0(i64 8, ptr %9) #10
  call void @llvm.lifetime.end.p0(i64 8, ptr %8) #10
  call void @llvm.lifetime.end.p0(i64 8, ptr %7) #10
  ret void
}