; Function Attrs: nounwind uwtable
define void @Aig_NodeIntersectLists(ptr noundef readonly captures(none) %0, ptr noundef readonly captures(none) %1, ptr noundef captures(none) %2) local_unnamed_addr #1 {
  %4 = getelementptr inbounds nuw i8, ptr %2, i64 8
  %5 = getelementptr inbounds nuw i8, ptr %0, i64 8
  %6 = load ptr, ptr %5, align 8, !tbaa !24
  %7 = getelementptr inbounds nuw i8, ptr %1, i64 8
  %8 = load ptr, ptr %7, align 8, !tbaa !24
  %9 = getelementptr inbounds nuw i8, ptr %0, i64 4
  %10 = load i32, ptr %9, align 4, !tbaa !22
  %11 = sext i32 %10 to i64
  %12 = getelementptr inbounds ptr, ptr %6, i64 %11
  %13 = getelementptr inbounds nuw i8, ptr %1, i64 4
  %14 = load i32, ptr %13, align 4, !tbaa !22
  %15 = sext i32 %14 to i64
  %16 = getelementptr inbounds ptr, ptr %8, i64 %15
  %17 = tail call noundef i32 @llvm.smax.i32(i32 %10, i32 %14)
  %18 = load i32, ptr %2, align 8, !tbaa !42
  %.not.i = icmp slt i32 %18, %17
  %.pre = load ptr, ptr %4, align 8, !tbaa !24
  br i1 %.not.i, label %19, label %Vec_PtrGrow.exit

19:                                               ; preds = %3
  %.not9.i = icmp eq ptr %.pre, null
  %20 = sext i32 %17 to i64
  %21 = shl nsw i64 %20, 3
  br i1 %.not9.i, label %24, label %22

22:                                               ; preds = %19
  %23 = tail call ptr @realloc(ptr noundef nonnull %.pre, i64 noundef %21) #27
  br label %26

24:                                               ; preds = %19
  %25 = tail call noalias ptr @malloc(i64 noundef %21) #28
  br label %26

26:                                               ; preds = %24, %22
  %27 = phi ptr [ %23, %22 ], [ %25, %24 ]
  store ptr %27, ptr %4, align 8, !tbaa !24
  store i32 %17, ptr %2, align 8, !tbaa !42
  br label %Vec_PtrGrow.exit

Vec_PtrGrow.exit:                                 ; preds = %3, %26
  %28 = phi ptr [ %.pre, %3 ], [ %27, %26 ]
  %29 = icmp sgt i32 %10, 0
  %30 = icmp sgt i32 %14, 0
  %31 = and i1 %29, %30
  br i1 %31, label %.lr.ph, label %._crit_edge

.lr.ph:                                           ; preds = %Vec_PtrGrow.exit, %49
  %.036 = phi ptr [ %.1, %49 ], [ %28, %Vec_PtrGrow.exit ]
  %.02735 = phi ptr [ %.128, %49 ], [ %6, %Vec_PtrGrow.exit ]
  %.02934 = phi ptr [ %.130, %49 ], [ %8, %Vec_PtrGrow.exit ]
  %32 = load ptr, ptr %.02735, align 8, !tbaa !43
  %33 = getelementptr inbounds nuw i8, ptr %32, i64 36
  %34 = load i32, ptr %33, align 4, !tbaa !44
  %35 = load ptr, ptr %.02934, align 8, !tbaa !43
  %36 = getelementptr inbounds nuw i8, ptr %35, i64 36
  %37 = load i32, ptr %36, align 4, !tbaa !44
  %38 = icmp eq i32 %34, %37
  br i1 %38, label %39, label %43

39:                                               ; preds = %.lr.ph
  %40 = getelementptr inbounds nuw i8, ptr %.02735, i64 8
  %41 = getelementptr inbounds nuw i8, ptr %.036, i64 8
  store ptr %32, ptr %.036, align 8, !tbaa !43
  %42 = getelementptr inbounds nuw i8, ptr %.02934, i64 8
  br label %49

43:                                               ; preds = %.lr.ph
  %44 = icmp slt i32 %34, %37
  br i1 %44, label %45, label %47

45:                                               ; preds = %43
  %46 = getelementptr inbounds nuw i8, ptr %.02735, i64 8
  br label %49

47:                                               ; preds = %43
  %48 = getelementptr inbounds nuw i8, ptr %.02934, i64 8
  br label %49

49:                                               ; preds = %45, %47, %39
  %.130 = phi ptr [ %42, %39 ], [ %.02934, %45 ], [ %48, %47 ]
  %.128 = phi ptr [ %40, %39 ], [ %46, %45 ], [ %.02735, %47 ]
  %.1 = phi ptr [ %41, %39 ], [ %.036, %45 ], [ %.036, %47 ]
  %50 = icmp ult ptr %.128, %12
  %51 = icmp ult ptr %.130, %16
  %52 = select i1 %50, i1 %51, i1 false
  br i1 %52, label %.lr.ph, label %._crit_edge, !llvm.loop !98

._crit_edge:                                      ; preds = %49, %Vec_PtrGrow.exit
  %.0.lcssa = phi ptr [ %28, %Vec_PtrGrow.exit ], [ %.1, %49 ]
  %53 = ptrtoint ptr %.0.lcssa to i64
  %54 = ptrtoint ptr %28 to i64
  %55 = sub i64 %53, %54
  %56 = lshr exact i64 %55, 3
  %57 = trunc i64 %56 to i32
  %58 = getelementptr inbounds nuw i8, ptr %2, i64 4
  store i32 %57, ptr %58, align 4, !tbaa !22
  ret void
}